Certificate:
    Data:
        Version: 3 (0x2)
        Serial Number:
            c5:b7:86:46:3f:cb:ca:85
    Signature Algorithm: sha1WithRSAEncryption
        Issuer: C=UK, ST=London, O=BERG Ltd, OU=BERG Cloud, CN=ca.bergcloud.com/emailAddress=ops@bergcloud.com
        Validity
            Not Before: Jun 13 15:38:02 2012 GMT
            Not After : Jun 11 15:38:02 2022 GMT
        Subject: C=UK, ST=London, O=BERG Ltd, OU=BERG Cloud, CN=ca.bergcloud.com/emailAddress=ops@bergcloud.com
        Subject Public Key Info:
            Public Key Algorithm: rsaEncryption
                Public-Key: (2048 bit)
                Modulus:
                    00:b0:a9:27:2b:e0:7a:6d:c0:5a:c6:3a:fb:cb:d1:
                    4e:2b:72:f6:9d:24:8c:9f:2d:e3:e4:2c:69:e1:10:
                    cf:a8:34:3c:49:1c:8e:df:47:b9:37:b7:af:7f:65:
                    a6:af:43:3b:3f:3d:12:1f:5d:a2:ea:13:08:fa:2b:
                    8e:c1:38:36:47:e2:7c:22:34:ff:60:71:9f:87:b5:
                    67:4d:7f:15:f8:7a:f7:b4:d0:11:91:b4:d1:36:75:
                    bb:4c:93:2c:06:2e:88:4a:34:7e:e8:94:5c:27:3f:
                    2f:7e:4d:24:9e:67:0e:d7:e1:6c:9f:c8:9b:6b:89:
                    71:cf:8e:82:d4:ca:c1:3b:69:a2:20:29:2e:34:fd:
                    91:01:75:50:55:6a:3b:41:6b:c7:ab:c8:9c:10:5c:
                    ac:97:a5:b6:f8:32:ad:21:f3:82:33:78:41:dc:38:
                    9b:f7:0d:3b:bd:d4:70:1f:79:eb:a1:a9:9f:97:9a:
                    7b:7c:7a:b2:49:39:76:cf:0e:0d:f5:11:1f:0c:70:
                    1b:9c:c1:da:7e:33:92:1e:1b:ac:a0:d7:62:69:a3:
                    a5:75:29:fa:76:43:fe:27:7e:2f:80:b4:7d:dd:8f:
                    02:29:80:b6:82:40:8e:7c:2f:c3:8d:29:0d:1c:0a:
                    ce:64:6b:1b:90:a5:03:3f:c8:12:76:75:2a:f5:42:
                    bd:c7
                Exponent: 65537 (0x10001)
        X509v3 extensions:
            X509v3 Subject Key Identifier: 
                CE:5D:19:15:F6:7E:C3:EE:82:E9:9F:AA:D8:BB:F2:B4:32:CB:D0:EB
            X509v3 Authority Key Identifier: 
                keyid:CE:5D:19:15:F6:7E:C3:EE:82:E9:9F:AA:D8:BB:F2:B4:32:CB:D0:EB

            X509v3 Basic Constraints: 
                CA:TRUE
    Signature Algorithm: sha1WithRSAEncryption
         9c:cb:d4:7e:ca:ad:dd:0d:ad:df:fe:62:c8:ee:6d:ba:a6:17:
         d2:16:b1:15:e3:1d:47:cd:13:c7:f5:a2:6c:1d:29:02:46:77:
         d6:5e:20:d9:24:99:0a:46:01:7a:36:ba:bd:18:0d:2b:44:a2:
         1f:95:a8:f3:b8:2a:41:cd:47:3c:fa:1d:af:bb:70:b8:0c:a1:
         16:7d:ab:4d:62:55:76:fd:93:62:bb:7a:6c:f8:a7:f8:41:41:
         e8:85:6a:b5:cb:a2:21:ed:2f:40:5b:dd:3b:dc:bf:ee:07:6d:
         88:2f:c9:e6:46:db:35:34:c7:18:67:19:5a:b4:2a:63:ad:f0:
         01:ec:1b:03:71:db:c0:13:37:69:e8:de:7c:f8:ae:60:12:62:
         a8:48:74:6e:c0:7f:ca:83:6f:64:77:79:1e:1e:d8:bb:d4:d6:
         e9:ca:f5:e7:b1:00:00:e6:b9:02:c2:95:86:f5:fa:8a:9b:83:
         de:b4:9a:7f:ef:25:05:e0:14:a9:c6:ed:0e:ca:ea:a9:90:11:
         84:d8:91:b8:54:b4:01:18:b3:6c:53:ce:27:8c:3b:c6:f1:1b:
         a8:98:9a:1e:ac:63:ac:88:1d:ed:3f:c0:61:59:e6:97:bb:95:
         09:bf:1c:10:27:45:d7:cc:90:c0:4b:77:04:ea:0f:60:3a:ae:
         db:9f:d2:5b
-----BEGIN CERTIFICATE-----
MIID2zCCAsOgAwIBAgIJAMW3hkY/y8qFMA0GCSqGSIb3DQEBBQUAMIGDMQswCQYD
VQQGEwJVSzEPMA0GA1UECAwGTG9uZG9uMREwDwYDVQQKDAhCRVJHIEx0ZDETMBEG
A1UECwwKQkVSRyBDbG91ZDEZMBcGA1UEAwwQY2EuYmVyZ2Nsb3VkLmNvbTEgMB4G
CSqGSIb3DQEJARYRb3BzQGJlcmdjbG91ZC5jb20wHhcNMTIwNjEzMTUzODAyWhcN
MjIwNjExMTUzODAyWjCBgzELMAkGA1UEBhMCVUsxDzANBgNVBAgMBkxvbmRvbjER
MA8GA1UECgwIQkVSRyBMdGQxEzARBgNVBAsMCkJFUkcgQ2xvdWQxGTAXBgNVBAMM
EGNhLmJlcmdjbG91ZC5jb20xIDAeBgkqhkiG9w0BCQEWEW9wc0BiZXJnY2xvdWQu
Y29tMIIBIjANBgkqhkiG9w0BAQEFAAOCAQ8AMIIBCgKCAQEAsKknK+B6bcBaxjr7
y9FOK3L2nSSMny3j5Cxp4RDPqDQ8SRyO30e5N7evf2Wmr0M7Pz0SH12i6hMI+iuO
wTg2R+J8IjT/YHGfh7VnTX8V+Hr3tNARkbTRNnW7TJMsBi6ISjR+6JRcJz8vfk0k
nmcO1+Fsn8iba4lxz46C1MrBO2miICkuNP2RAXVQVWo7QWvHq8icEFysl6W2+DKt
IfOCM3hB3Dib9w07vdRwH3nroamfl5p7fHqySTl2zw4N9REfDHAbnMHafjOSHhus
oNdiaaOldSn6dkP+J34vgLR93Y8CKYC2gkCOfC/DjSkNHArOZGsbkKUDP8gSdnUq
9UK9xwIDAQABo1AwTjAdBgNVHQ4EFgQUzl0ZFfZ+w+6C6Z+q2LvytDLL0OswHwYD
VR0jBBgwFoAUzl0ZFfZ+w+6C6Z+q2LvytDLL0OswDAYDVR0TBAUwAwEB/zANBgkq
hkiG9w0BAQUFAAOCAQEAnMvUfsqt3Q2t3/5iyO5tuqYX0haxFeMdR80Tx/WibB0p
AkZ31l4g2SSZCkYBeja6vRgNK0SiH5Wo87gqQc1HPPodr7twuAyhFn2rTWJVdv2T
Yrt6bPin+EFB6IVqtcuiIe0vQFvdO9y/7gdtiC/J5kbbNTTHGGcZWrQqY63wAewb
A3HbwBM3aejefPiuYBJiqEh0bsB/yoNvZHd5Hh7Yu9TW6cr157EAAOa5AsKVhvX6
ipuD3rSaf+8lBeAUqcbtDsrqqZARhNiRuFS0ARizbFPOJ4w7xvEbqJiaHqxjrIgd
7T/AYVnml7uVCb8cECdF18yQwEt3BOoPYDqu25/SWw==
-----END CERTIFICATE-----
